target datalayout = "e-m:e-p270:32:32-p271:32:32-p272:64:64-i64:64-i128:128-f80:128-n8:16:32:64-S128"
target triple = "x86_64-pc-linux-gnu"

; Function Attrs: nounwind uwtable
define internal void @SDL_Convert71To61(ptr noundef %0, ptr noundef %1, i32 noundef %2) #0 {
  %4 = alloca ptr, align 8
  %5 = alloca ptr, align 8
  %6 = alloca i32, align 4
  %7 = alloca i32, align 4
  %8 = alloca float, align 4
  %9 = alloca float, align 4
  store ptr %0, ptr %4, align 8
  store ptr %1, ptr %5, align 8
  store i32 %2, ptr %6, align 4
  call void @llvm.lifetime.start.p0(i64 4, ptr %7) #7
  %10 = load i32, ptr %6, align 4
  store i32 %10, ptr %7, align 4
  br label %11

11:                                               ; preds = %66, %3
  %12 = load i32, ptr %7, align 4
  %13 = icmp ne i32 %12, 0
  br i1 %13, label %14, label %73

14:                                               ; preds = %11
  call void @llvm.lifetime.start.p0(i64 4, ptr %8) #7
  %15 = load ptr, ptr %5, align 8
  %16 = getelementptr inbounds float, ptr %15, i64 4
  %17 = load float, ptr %16, align 4
  store float %17, ptr %8, align 4
  call void @llvm.lifetime.start.p0(i64 4, ptr %9) #7
  %18 = load ptr, ptr %5, align 8
  %19 = getelementptr inbounds float, ptr %18, i64 5
  %20 = load float, ptr %19, align 4
  store float %20, ptr %9, align 4
  %21 = load ptr, ptr %5, align 8
  %22 = getelementptr inbounds float, ptr %21, i64 0
  %23 = load float, ptr %22, align 4
  %24 = fmul float %23, 0x3FE14FDF40000000
  %25 = load ptr, ptr %4, align 8
  %26 = getelementptr inbounds float, ptr %25, i64 0
  store float %24, ptr %26, align 4
  %27 = load ptr, ptr %5, align 8
  %28 = getelementptr inbounds float, ptr %27, i64 1
  %29 = load float, ptr %28, align 4
  %30 = fmul float %29, 0x3FE14FDF40000000
  %31 = load ptr, ptr %4, align 8
  %32 = getelementptr inbounds float, ptr %31, i64 1
  store float %30, ptr %32, align 4
  %33 = load ptr, ptr %5, align 8
  %34 = getelementptr inbounds float, ptr %33, i64 2
  %35 = load float, ptr %34, align 4
  %36 = fmul float %35, 0x3FE14FDF40000000
  %37 = load ptr, ptr %4, align 8
  %38 = getelementptr inbounds float, ptr %37, i64 2
  store float %36, ptr %38, align 4
  %39 = load ptr, ptr %5, align 8
  %40 = getelementptr inbounds float, ptr %39, i64 3
  %41 = load float, ptr %40, align 4
  %42 = load ptr, ptr %4, align 8
  %43 = getelementptr inbounds float, ptr %42, i64 3
  store float %41, ptr %43, align 4
  %44 = load float, ptr %8, align 4
  %45 = load float, ptr %9, align 4
  %46 = fmul float %45, 0x3FD26E9780000000
  %47 = call float @llvm.fmuladd.f32(float %44, float 0x3FD26E9780000000, float %46)
  %48 = load ptr, ptr %4, align 8
  %49 = getelementptr inbounds float, ptr %48, i64 4
  store float %47, ptr %49, align 4
  %50 = load float, ptr %8, align 4
  %51 = load ptr, ptr %5, align 8
  %52 = getelementptr inbounds float, ptr %51, i64 6
  %53 = load float, ptr %52, align 4
  %54 = fmul float %53, 0x3FE14FDF40000000
  %55 = call float @llvm.fmuladd.f32(float %50, float 0x3FDD604180000000, float %54)
  %56 = load ptr, ptr %4, align 8
  %57 = getelementptr inbounds float, ptr %56, i64 5
  store float %55, ptr %57, align 4
  %58 = load float, ptr %9, align 4
  %59 = load ptr, ptr %5, align 8
  %60 = getelementptr inbounds float, ptr %59, i64 7
  %61 = load float, ptr %60, align 4
  %62 = fmul float %61, 0x3FE14FDF40000000
  %63 = call float @llvm.fmuladd.f32(float %58, float 0x3FDD604180000000, float %62)
  %64 = load ptr, ptr %4, align 8
  %65 = getelementptr inbounds float, ptr %64, i64 6
  store float %63, ptr %65, align 4
  call void @llvm.lifetime.end.p0(i64 4, ptr %9) #7
  call void @llvm.lifetime.end.p0(i64 4, ptr %8) #7
  br label %66

66:                                               ; preds = %14
  %67 = load i32, ptr %7, align 4
  %68 = add nsw i32 %67, -1
  store i32 %68, ptr %7, align 4
  %69 = load ptr, ptr %5, align 8
  %70 = getelementptr inbounds float, ptr %69, i64 8
  store ptr %70, ptr %5, align 8
  %71 = load ptr, ptr %4, align 8
  %72 = getelementptr inbounds float, ptr %71, i64 7
  store ptr %72, ptr %4, align 8
  br label %11, !llvm.loop !99

73:                                               ; preds = %11
  call void @llvm.lifetime.end.p0(i64 4, ptr %7) #7
  ret void
}