; Function Attrs: nofree norecurse nosync nounwind memory(argmem: readwrite) uwtable
define internal void @SDL_Convert71To61(ptr noundef writeonly captures(none) %0, ptr noundef readonly captures(none) %1, i32 noundef %2) #5 {
  %.not25 = icmp eq i32 %2, 0
  br i1 %.not25, label %._crit_edge, label %.lr.ph

.lr.ph:                                           ; preds = %3, %.lr.ph
  %.028 = phi ptr [ %36, %.lr.ph ], [ %0, %3 ]
  %.02327 = phi ptr [ %35, %.lr.ph ], [ %1, %3 ]
  %.02426 = phi i32 [ %34, %.lr.ph ], [ %2, %3 ]
  %4 = getelementptr inbounds nuw i8, ptr %.02327, i64 16
  %5 = load float, ptr %4, align 4
  %6 = getelementptr inbounds nuw i8, ptr %.02327, i64 20
  %7 = load float, ptr %6, align 4
  %8 = load float, ptr %.02327, align 4
  %9 = fmul float %8, 0x3FE14FDF40000000
  store float %9, ptr %.028, align 4
  %10 = getelementptr inbounds nuw i8, ptr %.02327, i64 4
  %11 = load float, ptr %10, align 4
  %12 = fmul float %11, 0x3FE14FDF40000000
  %13 = getelementptr inbounds nuw i8, ptr %.028, i64 4
  store float %12, ptr %13, align 4
  %14 = getelementptr inbounds nuw i8, ptr %.02327, i64 8
  %15 = load float, ptr %14, align 4
  %16 = fmul float %15, 0x3FE14FDF40000000
  %17 = getelementptr inbounds nuw i8, ptr %.028, i64 8
  store float %16, ptr %17, align 4
  %18 = getelementptr inbounds nuw i8, ptr %.02327, i64 12
  %19 = load float, ptr %18, align 4
  %20 = getelementptr inbounds nuw i8, ptr %.028, i64 12
  store float %19, ptr %20, align 4
  %21 = fmul float %7, 0x3FD26E9780000000
  %22 = tail call float @llvm.fmuladd.f32(float %5, float 0x3FD26E9780000000, float %21)
  %23 = getelementptr inbounds nuw i8, ptr %.028, i64 16
  store float %22, ptr %23, align 4
  %24 = getelementptr inbounds nuw i8, ptr %.02327, i64 24
  %25 = load float, ptr %24, align 4
  %26 = fmul float %25, 0x3FE14FDF40000000
  %27 = tail call float @llvm.fmuladd.f32(float %5, float 0x3FDD604180000000, float %26)
  %28 = getelementptr inbounds nuw i8, ptr %.028, i64 20
  store float %27, ptr %28, align 4
  %29 = getelementptr inbounds nuw i8, ptr %.02327, i64 28
  %30 = load float, ptr %29, align 4
  %31 = fmul float %30, 0x3FE14FDF40000000
  %32 = tail call float @llvm.fmuladd.f32(float %7, float 0x3FDD604180000000, float %31)
  %33 = getelementptr inbounds nuw i8, ptr %.028, i64 24
  store float %32, ptr %33, align 4
  %34 = add nsw i32 %.02426, -1
  %35 = getelementptr inbounds nuw i8, ptr %.02327, i64 32
  %36 = getelementptr inbounds nuw i8, ptr %.028, i64 28
  %.not = icmp eq i32 %34, 0
  br i1 %.not, label %._crit_edge, label %.lr.ph, !llvm.loop !105

._crit_edge:                                      ; preds = %.lr.ph, %3
  ret void
}